target datalayout = "e-m:e-p270:32:32-p271:32:32-p272:64:64-i64:64-i128:128-f80:128-n8:16:32:64-S128"
target triple = "x86_64-pc-linux-gnu"

%struct.lv_subject_t = type { %struct.lv_ll_t, %union.lv_subject_value_t, %union.lv_subject_value_t, ptr, i32 }
%struct.lv_ll_t = type { i32, ptr, ptr }
%union.lv_subject_value_t = type { ptr }

; Function Attrs: nounwind uwtable
define internal void @lv_subject_notify_if_changed(ptr noundef %0) #0 {
  %2 = alloca ptr, align 8
  %3 = alloca i24, align 8
  %4 = alloca i24, align 8
  store ptr %0, ptr %2, align 8, !tbaa !3
  %5 = load ptr, ptr %2, align 8, !tbaa !3
  %6 = getelementptr inbounds nuw %struct.lv_subject_t, ptr %5, i32 0, i32 4
  %7 = load i32, ptr %6, align 8
  %8 = and i32 %7, 15
  switch i32 %8, label %51 [
    i32 0, label %9
    i32 1, label %9
    i32 2, label %10
    i32 5, label %21
    i32 3, label %21
    i32 4, label %23
    i32 6, label %34
  ]

9:                                                ; preds = %1, %1
  br label %51

10:                                               ; preds = %1
  %11 = load ptr, ptr %2, align 8, !tbaa !3
  %12 = getelementptr inbounds nuw %struct.lv_subject_t, ptr %11, i32 0, i32 1
  %13 = load i32, ptr %12, align 8, !tbaa !9
  %14 = load ptr, ptr %2, align 8, !tbaa !3
  %15 = getelementptr inbounds nuw %struct.lv_subject_t, ptr %14, i32 0, i32 2
  %16 = load i32, ptr %15, align 8, !tbaa !9
  %17 = icmp ne i32 %13, %16
  br i1 %17, label %18, label %20

18:                                               ; preds = %10
  %19 = load ptr, ptr %2, align 8, !tbaa !3
  call void @lv_subject_notify(ptr noundef %19)
  br label %20

20:                                               ; preds = %18, %10
  br label %51

21:                                               ; preds = %1, %1
  %22 = load ptr, ptr %2, align 8, !tbaa !3
  call void @lv_subject_notify(ptr noundef %22)
  br label %51

23:                                               ; preds = %1
  %24 = load ptr, ptr %2, align 8, !tbaa !3
  %25 = getelementptr inbounds nuw %struct.lv_subject_t, ptr %24, i32 0, i32 1
  %26 = load ptr, ptr %2, align 8, !tbaa !3
  %27 = getelementptr inbounds nuw %struct.lv_subject_t, ptr %26, i32 0, i32 2
  call void @llvm.memcpy.p0.p0.i64(ptr align 8 %3, ptr align 8 %25, i64 3, i1 false)
  %28 = load i24, ptr %3, align 8
  call void @llvm.memcpy.p0.p0.i64(ptr align 8 %4, ptr align 8 %27, i64 3, i1 false)
  %29 = load i24, ptr %4, align 8
  %30 = call zeroext i1 @lv_color_eq(i24 %28, i24 %29)
  br i1 %30, label %33, label %31

31:                                               ; preds = %23
  %32 = load ptr, ptr %2, align 8, !tbaa !3
  call void @lv_subject_notify(ptr noundef %32)
  br label %33

33:                                               ; preds = %31, %23
  br label %51

34:                                               ; preds = %1
  %35 = load ptr, ptr %2, align 8, !tbaa !3
  %36 = getelementptr inbounds nuw %struct.lv_subject_t, ptr %35, i32 0, i32 2
  %37 = load ptr, ptr %36, align 8, !tbaa !9
  %38 = icmp ne ptr %37, null
  br i1 %38, label %39, label %48

39:                                               ; preds = %34
  %40 = load ptr, ptr %2, align 8, !tbaa !3
  %41 = getelementptr inbounds nuw %struct.lv_subject_t, ptr %40, i32 0, i32 1
  %42 = load ptr, ptr %41, align 8, !tbaa !9
  %43 = load ptr, ptr %2, align 8, !tbaa !3
  %44 = getelementptr inbounds nuw %struct.lv_subject_t, ptr %43, i32 0, i32 2
  %45 = load ptr, ptr %44, align 8, !tbaa !9
  %46 = call i32 @lv_strcmp(ptr noundef %42, ptr noundef %45)
  %47 = icmp ne i32 %46, 0
  br i1 %47, label %48, label %50

48:                                               ; preds = %39, %34
  %49 = load ptr, ptr %2, align 8, !tbaa !3
  call void @lv_subject_notify(ptr noundef %49)
  br label %50

50:                                               ; preds = %48, %39
  br label %51

51:                                               ; preds = %9, %1, %50, %33, %21, %20
  ret void
}

; Function Attrs: nounwind uwtable
define void @lv_subject_copy_string(ptr noundef %0, ptr noundef %1) #0 {
  %3 = alloca ptr, align 8
  %4 = alloca ptr, align 8
  store ptr %0, ptr %3, align 8, !tbaa !3
  store ptr %1, ptr %4, align 8, !tbaa !12
  %5 = load ptr, ptr %3, align 8, !tbaa !3
  %6 = getelementptr inbounds nuw %struct.lv_subject_t, ptr %5, i32 0, i32 4
  %7 = load i32, ptr %6, align 8
  %8 = and i32 %7, 15
  %9 = icmp ne i32 %8, 6
  br i1 %9, label %10, label %13

10:                                               ; preds = %2
  br label %11

11:                                               ; preds = %10
  br label %12

12:                                               ; preds = %11
  br label %53

13:                                               ; preds = %2
  %14 = load ptr, ptr %3, align 8, !tbaa !3
  %15 = getelementptr inbounds nuw %struct.lv_subject_t, ptr %14, i32 0, i32 4
  %16 = load i32, ptr %15, align 8
  %17 = lshr i32 %16, 4
  %18 = and i32 %17, 16777215
  %19 = icmp slt i32 %18, 1
  br i1 %19, label %20, label %21

20:                                               ; preds = %13
  br label %53

21:                                               ; preds = %13
  %22 = load ptr, ptr %3, align 8, !tbaa !3
  %23 = getelementptr inbounds nuw %struct.lv_subject_t, ptr %22, i32 0, i32 2
  %24 = load ptr, ptr %23, align 8, !tbaa !9
  %25 = icmp ne ptr %24, null
  br i1 %25, label %26, label %40

26:                                               ; preds = %21
  %27 = load ptr, ptr %3, align 8, !tbaa !3
  %28 = getelementptr inbounds nuw %struct.lv_subject_t, ptr %27, i32 0, i32 2
  %29 = load ptr, ptr %28, align 8, !tbaa !9
  %30 = load ptr, ptr %3, align 8, !tbaa !3
  %31 = getelementptr inbounds nuw %struct.lv_subject_t, ptr %30, i32 0, i32 1
  %32 = load ptr, ptr %31, align 8, !tbaa !9
  %33 = load ptr, ptr %3, align 8, !tbaa !3
  %34 = getelementptr inbounds nuw %struct.lv_subject_t, ptr %33, i32 0, i32 4
  %35 = load i32, ptr %34, align 8
  %36 = lshr i32 %35, 4
  %37 = and i32 %36, 16777215
  %38 = zext i32 %37 to i64
  %39 = call i64 @lv_strlcpy(ptr noundef %29, ptr noundef %32, i64 noundef %38)
  br label %40

40:                                               ; preds = %26, %21
  %41 = load ptr, ptr %3, align 8, !tbaa !3
  %42 = getelementptr inbounds nuw %struct.lv_subject_t, ptr %41, i32 0, i32 1
  %43 = load ptr, ptr %42, align 8, !tbaa !9
  %44 = load ptr, ptr %4, align 8, !tbaa !12
  %45 = load ptr, ptr %3, align 8, !tbaa !3
  %46 = getelementptr inbounds nuw %struct.lv_subject_t, ptr %45, i32 0, i32 4
  %47 = load i32, ptr %46, align 8
  %48 = lshr i32 %47, 4
  %49 = and i32 %48, 16777215
  %50 = zext i32 %49 to i64
  %51 = call i64 @lv_strlcpy(ptr noundef %43, ptr noundef %44, i64 noundef %50)
  %52 = load ptr, ptr %3, align 8, !tbaa !3
  call void @lv_subject_notify_if_changed(ptr noundef %52)
  br label %53

53:                                               ; preds = %40, %20, %12
  ret void
}