; Function Attrs: nounwind uwtable
define void @lv_subject_copy_string(ptr noundef %0, ptr noundef %1) local_unnamed_addr #0 {
  %3 = getelementptr inbounds nuw i8, ptr %0, i64 48
  %4 = load i32, ptr %3, align 8
  %5 = and i32 %4, 15
  %.not = icmp eq i32 %5, 6
  br i1 %.not, label %6, label %lv_subject_notify_if_changed.exit

6:                                                ; preds = %2
  %7 = lshr i32 %4, 4
  %8 = and i32 %7, 16777215
  %9 = icmp eq i32 %8, 0
  br i1 %9, label %lv_subject_notify_if_changed.exit, label %10

10:                                               ; preds = %6
  %11 = getelementptr inbounds nuw i8, ptr %0, i64 32
  %12 = load ptr, ptr %11, align 8, !tbaa !3
  %.not11 = icmp eq ptr %12, null
  br i1 %.not11, label %18, label %13

13:                                               ; preds = %10
  %14 = getelementptr inbounds nuw i8, ptr %0, i64 24
  %15 = load ptr, ptr %14, align 8, !tbaa !3
  %16 = zext nneg i32 %8 to i64
  %17 = tail call i64 @lv_strlcpy(ptr noundef nonnull %12, ptr noundef %15, i64 noundef %16) #9
  %.pre = load i32, ptr %3, align 8
  %.pre12 = lshr i32 %.pre, 4
  %.pre13 = and i32 %.pre12, 16777215
  br label %18

18:                                               ; preds = %13, %10
  %.pre-phi14 = phi i32 [ %.pre13, %13 ], [ %8, %10 ]
  %19 = getelementptr inbounds nuw i8, ptr %0, i64 24
  %20 = load ptr, ptr %19, align 8, !tbaa !3
  %21 = zext nneg i32 %.pre-phi14 to i64
  %22 = tail call i64 @lv_strlcpy(ptr noundef %20, ptr noundef %1, i64 noundef %21) #9
  %23 = load i32, ptr %3, align 8
  %24 = and i32 %23, 15
  switch i32 %24, label %lv_subject_notify_if_changed.exit [
    i32 6, label %30
    i32 4, label %28
    i32 2, label %25
    i32 5, label %.sink.split.i
    i32 3, label %.sink.split.i
  ]

25:                                               ; preds = %18
  %26 = load i32, ptr %19, align 8, !tbaa !3
  %27 = load i32, ptr %11, align 8, !tbaa !3
  %.not.i = icmp eq i32 %26, %27
  br i1 %.not.i, label %lv_subject_notify_if_changed.exit, label %.sink.split.i

28:                                               ; preds = %18
  %.0.copyload1.i = load i24, ptr %19, align 8
  %.0.copyload.i = load i24, ptr %11, align 8
  %29 = tail call zeroext i1 @lv_color_eq(i24 %.0.copyload1.i, i24 %.0.copyload.i) #9
  br i1 %29, label %lv_subject_notify_if_changed.exit, label %.sink.split.i

30:                                               ; preds = %18
  %31 = load ptr, ptr %11, align 8, !tbaa !3
  %.not14.i = icmp eq ptr %31, null
  br i1 %.not14.i, label %.sink.split.i, label %32

32:                                               ; preds = %30
  %33 = load ptr, ptr %19, align 8, !tbaa !3
  %34 = tail call i32 @lv_strcmp(ptr noundef %33, ptr noundef nonnull %31) #9
  %.not15.i = icmp eq i32 %34, 0
  br i1 %.not15.i, label %lv_subject_notify_if_changed.exit, label %.sink.split.i

.sink.split.i:                                    ; preds = %32, %30, %28, %25, %18, %18
  tail call void @lv_subject_notify(ptr noundef nonnull %0)
  br label %lv_subject_notify_if_changed.exit

lv_subject_notify_if_changed.exit:                ; preds = %.sink.split.i, %32, %28, %25, %18, %6, %2
  ret void
}